; Function Attrs: mustprogress uwtable
define void @_ZN3zmq5own_t16process_term_reqEPS0_(ptr noundef nonnull align 8 dereferenceable(1444) %this, ptr noundef %object_) unnamed_addr #0 align 2 personality ptr @__gxx_personality_v0 {
entry:
  %object_.addr = alloca ptr, align 8
  store ptr %object_, ptr %object_.addr, align 8
  %_terminating = getelementptr inbounds i8, ptr %this, i64 1360
  %0 = load i8, ptr %_terminating, align 8
  %1 = and i8 %0, 1
  %tobool.not = icmp eq i8 %1, 0
  br i1 %tobool.not, label %if.end, label %return

if.end:                                           ; preds = %entry
  %_owned = getelementptr inbounds i8, ptr %this, i64 1392
  %call.i = call noundef i64 @_ZNSt8_Rb_treeIPN3zmq5own_tES2_St9_IdentityIS2_ESt4lessIS2_ESaIS2_EE5eraseERKS2_(ptr noundef nonnull align 8 dereferenceable(48) %_owned, ptr noundef nonnull align 8 dereferenceable(8) %object_.addr)
  %cmp = icmp eq i64 %call.i, 0
  br i1 %cmp, label %return, label %if.end3

if.end3:                                          ; preds = %if.end
  %_term_acks.i = getelementptr inbounds i8, ptr %this, i64 1440
  %2 = load i32, ptr %_term_acks.i, align 8
  %add.i = add nsw i32 %2, 1
  store i32 %add.i, ptr %_term_acks.i, align 8
  %3 = load ptr, ptr %object_.addr, align 8
  %linger = getelementptr inbounds i8, ptr %this, i64 336
  %4 = load atomic i32, ptr %linger acquire, align 8
  call void @_ZN3zmq8object_t9send_termEPNS_5own_tEi(ptr noundef nonnull align 8 dereferenceable(20) %this, ptr noundef %3, i32 noundef %4)
  br label %return

return:                                           ; preds = %if.end, %entry, %if.end3
  ret void
}